target datalayout = "e-m:e-p270:32:32-p271:32:32-p272:64:64-i64:64-i128:128-f80:128-n8:16:32:64-S128"
target triple = "x86_64-pc-linux-gnu"

%struct._zval_struct = type { %union._zend_value, %union.anon.2, %union.anon.5 }
%union._zend_value = type { i64 }
%union.anon.2 = type { i32 }
%union.anon.5 = type { i32 }
%struct._zend_array = type { %struct._zend_refcounted_h, %union.anon.7, i32, %union.anon.9, i32, i32, i32, i32, i64, ptr }
%struct._zend_refcounted_h = type { i32, %union.anon.6 }
%union.anon.6 = type { i32 }
%union.anon.7 = type { i32 }
%union.anon.9 = type { ptr }
%struct._spl_filesystem_object = type { ptr, ptr, ptr, ptr, ptr, i32, i64, ptr, ptr, %union.anon, %struct._zend_object }
%union.anon = type { %struct.anon }
%struct.anon = type { ptr, ptr, i32, ptr, ptr, ptr, %struct._php_stream_dirent }
%struct._php_stream_dirent = type { [256 x i8], i8 }
%struct._zend_object = type { %struct._zend_refcounted_h, i32, ptr, ptr, ptr, [1 x %struct._zval_struct] }
%struct._zend_class_entry = type { i8, ptr, %union.anon.11, i32, i32, i32, i32, ptr, ptr, ptr, %struct._zend_array, %struct._zend_array, %struct._zend_array, ptr, ptr, ptr, ptr, ptr, ptr, ptr, ptr, ptr, ptr, ptr, ptr, ptr, ptr, ptr, ptr, ptr, ptr, ptr, %union.anon.12, ptr, ptr, ptr, ptr, i32, i32, %union.anon.13, ptr, ptr, ptr, ptr, i32, ptr, ptr, %union.anon.14 }
%union.anon.11 = type { ptr }
%union.anon.12 = type { ptr }
%union.anon.13 = type { ptr }
%union.anon.14 = type { %struct.anon.15 }
%struct.anon.15 = type { ptr, i32, i32 }

@spl_ce_SplFileObject = global ptr null, align 8
@spl_ce_SplFileInfo = global ptr null, align 8

; Function Attrs: nounwind uwtable
define internal ptr @spl_filesystem_object_new_ex(ptr noundef %0) #0 {
  %2 = alloca ptr, align 8
  %3 = alloca ptr, align 8
  %4 = alloca ptr, align 8
  store ptr %0, ptr %3, align 8
  %5 = load ptr, ptr %3, align 8
  store ptr %5, ptr %2, align 8
  %6 = load ptr, ptr %2, align 8
  %7 = getelementptr inbounds %struct._zend_class_entry, ptr %6, i32 0, i32 5
  %8 = load i32, ptr %7, align 8
  %9 = load ptr, ptr %2, align 8
  %10 = getelementptr inbounds %struct._zend_class_entry, ptr %9, i32 0, i32 4
  %11 = load i32, ptr %10, align 4
  %12 = and i32 %11, 2048
  %13 = icmp ne i32 %12, 0
  %14 = select i1 %13, i32 0, i32 1
  %15 = sub nsw i32 %8, %14
  %16 = sext i32 %15 to i64
  %17 = mul i64 16, %16
  %18 = add i64 440, %17
  %19 = call noalias ptr @_emalloc(i64 noundef %18) #15
  store ptr %19, ptr %4, align 8
  %20 = load ptr, ptr %4, align 8
  call void @llvm.memset.p0.i64(ptr align 8 %20, i8 0, i64 184, i1 false)
  %21 = load ptr, ptr @spl_ce_SplFileObject, align 8
  %22 = load ptr, ptr %4, align 8
  %23 = getelementptr inbounds %struct._spl_filesystem_object, ptr %22, i32 0, i32 7
  store ptr %21, ptr %23, align 8
  %24 = load ptr, ptr @spl_ce_SplFileInfo, align 8
  %25 = load ptr, ptr %4, align 8
  %26 = getelementptr inbounds %struct._spl_filesystem_object, ptr %25, i32 0, i32 8
  store ptr %24, ptr %26, align 8
  %27 = load ptr, ptr %4, align 8
  %28 = getelementptr inbounds %struct._spl_filesystem_object, ptr %27, i32 0, i32 10
  %29 = load ptr, ptr %3, align 8
  call void @zend_object_std_init(ptr noundef %28, ptr noundef %29)
  %30 = load ptr, ptr %4, align 8
  %31 = getelementptr inbounds %struct._spl_filesystem_object, ptr %30, i32 0, i32 10
  %32 = load ptr, ptr %3, align 8
  call void @object_properties_init(ptr noundef %31, ptr noundef %32)
  %33 = load ptr, ptr %4, align 8
  %34 = getelementptr inbounds %struct._spl_filesystem_object, ptr %33, i32 0, i32 10
  ret ptr %34
}

; Function Attrs: nounwind uwtable
define internal ptr @spl_filesystem_object_new(ptr noundef %0) #0 {
  %2 = alloca ptr, align 8
  store ptr %0, ptr %2, align 8
  %3 = load ptr, ptr %2, align 8
  %4 = call ptr @spl_filesystem_object_new_ex(ptr noundef %3)
  ret ptr %4
}