; Function Attrs: nounwind uwtable
define internal noundef nonnull ptr @spl_filesystem_object_new(ptr noundef %0) #0 {
  %2 = getelementptr inbounds i8, ptr %0, i64 32
  %3 = load i32, ptr %2, align 8
  %4 = getelementptr inbounds i8, ptr %0, i64 28
  %5 = load i32, ptr %4, align 4
  %6 = lshr i32 %5, 11
  %.lobit.i = and i32 %6, 1
  %7 = xor i32 %.lobit.i, 1
  %8 = sub nsw i32 %3, %7
  %9 = sext i32 %8 to i64
  %10 = shl nsw i64 %9, 4
  %11 = add nsw i64 %10, 440
  %12 = tail call noalias ptr @_emalloc(i64 noundef %11) #19
  tail call void @llvm.memset.p0.i64(ptr noundef nonnull align 8 dereferenceable(184) %12, i8 0, i64 184, i1 false)
  %13 = load ptr, ptr @spl_ce_SplFileObject, align 8
  %14 = getelementptr inbounds i8, ptr %12, i64 56
  store ptr %13, ptr %14, align 8
  %15 = load ptr, ptr @spl_ce_SplFileInfo, align 8
  %16 = getelementptr inbounds i8, ptr %12, i64 64
  store ptr %15, ptr %16, align 8
  %17 = getelementptr inbounds i8, ptr %12, i64 384
  tail call void @zend_object_std_init(ptr noundef nonnull %17, ptr noundef %0) #18
  tail call void @object_properties_init(ptr noundef nonnull %17, ptr noundef %0) #18
  ret ptr %17
}